target datalayout = "e-m:e-p270:32:32-p271:32:32-p272:64:64-i64:64-i128:128-f80:128-n8:16:32:64-S128"
target triple = "x86_64-pc-linux-gnu"

%struct.QuadTree_struct = type { i32, double, i32, ptr, double, ptr, ptr, ptr, i32, ptr }

@.str = private unnamed_addr constant [11 x i8] c"Graphics[{\00", align 1
@.str.1 = private unnamed_addr constant [13 x i8] c"Graphics3D[{\00", align 1
@.str.2 = private unnamed_addr constant [57 x i8] c"}, PlotRange -> All, Frame -> True, FrameTicks -> True]\0A\00", align 1
@.str.3 = private unnamed_addr constant [22 x i8] c"}, PlotRange -> All]\0A\00", align 1

; Function Attrs: nounwind uwtable
define void @QuadTree_print(ptr noundef %0, ptr noundef %1) #0 {
  %3 = alloca ptr, align 8
  %4 = alloca ptr, align 8
  store ptr %0, ptr %3, align 8, !tbaa !24
  store ptr %1, ptr %4, align 8, !tbaa !3
  %5 = load ptr, ptr %3, align 8, !tbaa !24
  %6 = icmp ne ptr %5, null
  br i1 %6, label %8, label %7

7:                                                ; preds = %2
  br label %39

8:                                                ; preds = %2
  %9 = load ptr, ptr %4, align 8, !tbaa !3
  %10 = getelementptr inbounds nuw %struct.QuadTree_struct, ptr %9, i32 0, i32 2
  %11 = load i32, ptr %10, align 8, !tbaa !18
  %12 = icmp eq i32 %11, 2
  br i1 %12, label %13, label %16

13:                                               ; preds = %8
  %14 = load ptr, ptr %3, align 8, !tbaa !24
  %15 = call i32 (ptr, ptr, ...) @fprintf(ptr noundef %14, ptr noundef @.str) #11
  br label %26

16:                                               ; preds = %8
  %17 = load ptr, ptr %4, align 8, !tbaa !3
  %18 = getelementptr inbounds nuw %struct.QuadTree_struct, ptr %17, i32 0, i32 2
  %19 = load i32, ptr %18, align 8, !tbaa !18
  %20 = icmp eq i32 %19, 3
  br i1 %20, label %21, label %24

21:                                               ; preds = %16
  %22 = load ptr, ptr %3, align 8, !tbaa !24
  %23 = call i32 (ptr, ptr, ...) @fprintf(ptr noundef %22, ptr noundef @.str.1) #11
  br label %25

24:                                               ; preds = %16
  br label %39

25:                                               ; preds = %21
  br label %26

26:                                               ; preds = %25, %13
  %27 = load ptr, ptr %3, align 8, !tbaa !24
  %28 = load ptr, ptr %4, align 8, !tbaa !3
  call void @QuadTree_print_internal(ptr noundef %27, ptr noundef %28, i32 noundef 0)
  %29 = load ptr, ptr %4, align 8, !tbaa !3
  %30 = getelementptr inbounds nuw %struct.QuadTree_struct, ptr %29, i32 0, i32 2
  %31 = load i32, ptr %30, align 8, !tbaa !18
  %32 = icmp eq i32 %31, 2
  br i1 %32, label %33, label %36

33:                                               ; preds = %26
  %34 = load ptr, ptr %3, align 8, !tbaa !24
  %35 = call i32 (ptr, ptr, ...) @fprintf(ptr noundef %34, ptr noundef @.str.2) #11
  br label %39

36:                                               ; preds = %26
  %37 = load ptr, ptr %3, align 8, !tbaa !24
  %38 = call i32 (ptr, ptr, ...) @fprintf(ptr noundef %37, ptr noundef @.str.3) #11
  br label %39

39:                                               ; preds = %7, %24, %36, %33
  ret void
}