; Function Attrs: nofree nounwind uwtable
define void @QuadTree_print(ptr noundef captures(address_is_null) %0, ptr noundef captures(address_is_null) %1) local_unnamed_addr #1 {
  %.not = icmp eq ptr %0, null
  br i1 %.not, label %17, label %3

3:                                                ; preds = %2
  %4 = getelementptr inbounds nuw i8, ptr %1, i64 16
  %5 = load i32, ptr %4, align 8, !tbaa !3
  switch i32 %5, label %17 [
    i32 2, label %6
    i32 3, label %8
  ]

6:                                                ; preds = %3
  %7 = tail call i64 @fwrite(ptr nonnull @.str, i64 10, i64 1, ptr nonnull %0)
  br label %10

8:                                                ; preds = %3
  %9 = tail call i64 @fwrite(ptr nonnull @.str.1, i64 12, i64 1, ptr nonnull %0)
  br label %10

10:                                               ; preds = %8, %6
  tail call fastcc void @QuadTree_print_internal(ptr noundef %0, ptr noundef nonnull %1, i32 noundef 0)
  %11 = load i32, ptr %4, align 8, !tbaa !3
  %12 = icmp eq i32 %11, 2
  br i1 %12, label %13, label %15

13:                                               ; preds = %10
  %14 = tail call i64 @fwrite(ptr nonnull @.str.2, i64 56, i64 1, ptr nonnull %0)
  br label %17

15:                                               ; preds = %10
  %16 = tail call i64 @fwrite(ptr nonnull @.str.3, i64 21, i64 1, ptr nonnull %0)
  br label %17

17:                                               ; preds = %3, %2, %15, %13
  ret void
}